target datalayout = "e-m:e-p270:32:32-p271:32:32-p272:64:64-i64:64-i128:128-f80:128-n8:16:32:64-S128"
target triple = "x86_64-unknown-linux-gnu"

%struct.ecc_set_type = type { i32, i32, ptr, ptr, ptr, ptr, ptr, ptr, ptr, ptr, i32, i32, i32 }
%struct.ecc_key = type { i32, i32, i32, i32, ptr, ptr, %struct.ecc_point, [1 x %struct.sp_int], ptr }
%struct.ecc_point = type { [1 x %struct.sp_int], [1 x %struct.sp_int], [1 x %struct.sp_int] }
%struct.sp_int = type { i32, i32, [129 x i64] }

; Function Attrs: nounwind uwtable
define i32 @wc_ecc_set_curve(ptr noundef %key, i32 noundef %keysize, i32 noundef %curve_id) #0 {
entry:
  %retval = alloca i32, align 4
  %key.addr = alloca ptr, align 8
  %keysize.addr = alloca i32, align 4
  %curve_id.addr = alloca i32, align 4
  %x = alloca i32, align 4
  store ptr %key, ptr %key.addr, align 8
  store i32 %keysize, ptr %keysize.addr, align 4
  store i32 %curve_id, ptr %curve_id.addr, align 4
  %0 = load ptr, ptr %key.addr, align 8
  %cmp = icmp eq ptr %0, null
  br i1 %cmp, label %if.then, label %lor.lhs.false

lor.lhs.false:                                    ; preds = %entry
  %1 = load i32, ptr %keysize.addr, align 4
  %cmp1 = icmp sle i32 %1, 0
  br i1 %cmp1, label %land.lhs.true, label %if.end

land.lhs.true:                                    ; preds = %lor.lhs.false
  %2 = load i32, ptr %curve_id.addr, align 4
  %cmp2 = icmp slt i32 %2, 0
  br i1 %cmp2, label %if.then, label %if.end

if.then:                                          ; preds = %land.lhs.true, %entry
  store i32 -173, ptr %retval, align 4
  br label %return

if.end:                                           ; preds = %land.lhs.true, %lor.lhs.false
  %3 = load i32, ptr %keysize.addr, align 4
  %cmp3 = icmp sgt i32 %3, 66
  br i1 %cmp3, label %if.then4, label %if.end5

if.then4:                                         ; preds = %if.end
  store i32 -170, ptr %retval, align 4
  br label %return

if.end5:                                          ; preds = %if.end
  %4 = load ptr, ptr %key.addr, align 8
  %idx = getelementptr inbounds %struct.ecc_key, ptr %4, i32 0, i32 1
  %5 = load i32, ptr %idx, align 4
  %cmp6 = icmp ne i32 %5, -1
  br i1 %cmp6, label %if.then7, label %if.end34

if.then7:                                         ; preds = %if.end5
  %6 = load ptr, ptr %key.addr, align 8
  %idx8 = getelementptr inbounds %struct.ecc_key, ptr %6, i32 0, i32 1
  store i32 0, ptr %idx8, align 4
  %7 = load ptr, ptr %key.addr, align 8
  %dp = getelementptr inbounds %struct.ecc_key, ptr %7, i32 0, i32 4
  store ptr null, ptr %dp, align 8
  store i32 0, ptr %x, align 4
  br label %for.cond

for.cond:                                         ; preds = %for.inc, %if.then7
  %8 = load i32, ptr %x, align 4
  %idxprom = sext i32 %8 to i64
  %arrayidx = getelementptr inbounds [6 x %struct.ecc_set_type], ptr @ecc_sets, i64 0, i64 %idxprom
  %size = getelementptr inbounds %struct.ecc_set_type, ptr %arrayidx, i32 0, i32 0
  %9 = load i32, ptr %size, align 8
  %cmp9 = icmp ne i32 %9, 0
  br i1 %cmp9, label %for.body, label %for.end

for.body:                                         ; preds = %for.cond
  %10 = load i32, ptr %curve_id.addr, align 4
  %cmp10 = icmp sgt i32 %10, 0
  br i1 %cmp10, label %if.then11, label %if.else

if.then11:                                        ; preds = %for.body
  %11 = load i32, ptr %curve_id.addr, align 4
  %12 = load i32, ptr %x, align 4
  %idxprom12 = sext i32 %12 to i64
  %arrayidx13 = getelementptr inbounds [6 x %struct.ecc_set_type], ptr @ecc_sets, i64 0, i64 %idxprom12
  %id = getelementptr inbounds %struct.ecc_set_type, ptr %arrayidx13, i32 0, i32 1
  %13 = load i32, ptr %id, align 4
  %cmp14 = icmp eq i32 %11, %13
  br i1 %cmp14, label %if.then15, label %if.end16

if.then15:                                        ; preds = %if.then11
  br label %for.end

if.end16:                                         ; preds = %if.then11
  br label %if.end23

if.else:                                          ; preds = %for.body
  %14 = load i32, ptr %keysize.addr, align 4
  %15 = load i32, ptr %x, align 4
  %idxprom17 = sext i32 %15 to i64
  %arrayidx18 = getelementptr inbounds [6 x %struct.ecc_set_type], ptr @ecc_sets, i64 0, i64 %idxprom17
  %size19 = getelementptr inbounds %struct.ecc_set_type, ptr %arrayidx18, i32 0, i32 0
  %16 = load i32, ptr %size19, align 8
  %cmp20 = icmp sle i32 %14, %16
  br i1 %cmp20, label %if.then21, label %if.end22

if.then21:                                        ; preds = %if.else
  br label %for.end

if.end22:                                         ; preds = %if.else
  br label %if.end23

if.end23:                                         ; preds = %if.end22, %if.end16
  br label %for.inc

for.inc:                                          ; preds = %if.end23
  %17 = load i32, ptr %x, align 4
  %inc = add nsw i32 %17, 1
  store i32 %inc, ptr %x, align 4
  br label %for.cond, !llvm.loop !6

for.end:                                          ; preds = %if.then21, %if.then15, %for.cond
  %18 = load i32, ptr %x, align 4
  %idxprom24 = sext i32 %18 to i64
  %arrayidx25 = getelementptr inbounds [6 x %struct.ecc_set_type], ptr @ecc_sets, i64 0, i64 %idxprom24
  %size26 = getelementptr inbounds %struct.ecc_set_type, ptr %arrayidx25, i32 0, i32 0
  %19 = load i32, ptr %size26, align 8
  %cmp27 = icmp eq i32 %19, 0
  br i1 %cmp27, label %if.then28, label %if.end29

if.then28:                                        ; preds = %for.end
  br label %do.body

do.body:                                          ; preds = %if.then28
  br label %do.end

do.end:                                           ; preds = %do.body
  store i32 -172, ptr %retval, align 4
  br label %return

if.end29:                                         ; preds = %for.end
  %20 = load i32, ptr %x, align 4
  %21 = load ptr, ptr %key.addr, align 8
  %idx30 = getelementptr inbounds %struct.ecc_key, ptr %21, i32 0, i32 1
  store i32 %20, ptr %idx30, align 4
  %22 = load i32, ptr %x, align 4
  %idxprom31 = sext i32 %22 to i64
  %arrayidx32 = getelementptr inbounds [6 x %struct.ecc_set_type], ptr @ecc_sets, i64 0, i64 %idxprom31
  %23 = load ptr, ptr %key.addr, align 8
  %dp33 = getelementptr inbounds %struct.ecc_key, ptr %23, i32 0, i32 4
  store ptr %arrayidx32, ptr %dp33, align 8
  br label %if.end34

if.end34:                                         ; preds = %if.end29, %if.end5
  store i32 0, ptr %retval, align 4
  br label %return

return:                                           ; preds = %if.end34, %do.end, %if.then4, %if.then
  %24 = load i32, ptr %retval, align 4
  ret i32 %24
}

; Function Attrs: nounwind uwtable
define internal void @wc_ecc_reset(ptr noundef %key) #0 {
entry:
  %key.addr = alloca ptr, align 8
  store ptr %key, ptr %key.addr, align 8
  %0 = load ptr, ptr %key.addr, align 8
  %state = getelementptr inbounds %struct.ecc_key, ptr %0, i32 0, i32 2
  store i32 0, ptr %state, align 8
  ret void
}

; Function Attrs: nounwind uwtable
define i32 @wc_ecc_import_private_key_ex(ptr noundef %priv, i32 noundef %privSz, ptr noundef %pub, i32 noundef %pubSz, ptr noundef %key, i32 noundef %curve_id) #0 {
entry:
  %retval = alloca i32, align 4
  %priv.addr = alloca ptr, align 8
  %privSz.addr = alloca i32, align 4
  %pub.addr = alloca ptr, align 8
  %pubSz.addr = alloca i32, align 4
  %key.addr = alloca ptr, align 8
  %curve_id.addr = alloca i32, align 4
  %ret = alloca i32, align 4
  %idx = alloca i32, align 4
  store ptr %priv, ptr %priv.addr, align 8
  store i32 %privSz, ptr %privSz.addr, align 4
  store ptr %pub, ptr %pub.addr, align 8
  store i32 %pubSz, ptr %pubSz.addr, align 4
  store ptr %key, ptr %key.addr, align 8
  store i32 %curve_id, ptr %curve_id.addr, align 4
  %0 = load ptr, ptr %key.addr, align 8
  %cmp = icmp eq ptr %0, null
  br i1 %cmp, label %if.then, label %lor.lhs.false

lor.lhs.false:                                    ; preds = %entry
  %1 = load ptr, ptr %priv.addr, align 8
  %cmp1 = icmp eq ptr %1, null
  br i1 %cmp1, label %if.then, label %if.end

if.then:                                          ; preds = %lor.lhs.false, %entry
  store i32 -173, ptr %retval, align 4
  br label %return

if.end:                                           ; preds = %lor.lhs.false
  %2 = load ptr, ptr %pub.addr, align 8
  %cmp2 = icmp ne ptr %2, null
  br i1 %cmp2, label %if.then3, label %if.else

if.then3:                                         ; preds = %if.end
  store i32 0, ptr %idx, align 4
  %3 = load ptr, ptr %pub.addr, align 8
  %4 = load i32, ptr %pubSz.addr, align 4
  %5 = load ptr, ptr %key.addr, align 8
  %6 = load i32, ptr %curve_id.addr, align 4
  %call = call i32 @wc_ecc_import_x963_ex(ptr noundef %3, i32 noundef %4, ptr noundef %5, i32 noundef %6)
  store i32 %call, ptr %ret, align 4
  %7 = load i32, ptr %ret, align 4
  %cmp4 = icmp slt i32 %7, 0
  br i1 %cmp4, label %if.then5, label %if.end7

if.then5:                                         ; preds = %if.then3
  %8 = load ptr, ptr %pub.addr, align 8
  %9 = load ptr, ptr %key.addr, align 8
  %10 = load i32, ptr %pubSz.addr, align 4
  %call6 = call i32 @wc_EccPublicKeyDecode(ptr noundef %8, ptr noundef %idx, ptr noundef %9, i32 noundef %10)
  store i32 %call6, ptr %ret, align 4
  br label %if.end7

if.end7:                                          ; preds = %if.then5, %if.then3
  %11 = load ptr, ptr %key.addr, align 8
  %type = getelementptr inbounds %struct.ecc_key, ptr %11, i32 0, i32 0
  store i32 2, ptr %type, align 8
  br label %if.end10

if.else:                                          ; preds = %if.end
  %12 = load ptr, ptr %key.addr, align 8
  call void @wc_ecc_reset(ptr noundef %12)
  %13 = load ptr, ptr %key.addr, align 8
  %14 = load i32, ptr %privSz.addr, align 4
  %15 = load i32, ptr %curve_id.addr, align 4
  %call8 = call i32 @wc_ecc_set_curve(ptr noundef %13, i32 noundef %14, i32 noundef %15)
  store i32 %call8, ptr %ret, align 4
  %16 = load ptr, ptr %key.addr, align 8
  %type9 = getelementptr inbounds %struct.ecc_key, ptr %16, i32 0, i32 0
  store i32 3, ptr %type9, align 8
  br label %if.end10

if.end10:                                         ; preds = %if.else, %if.end7
  %17 = load i32, ptr %ret, align 4
  %cmp11 = icmp ne i32 %17, 0
  br i1 %cmp11, label %if.then12, label %if.end13

if.then12:                                        ; preds = %if.end10
  %18 = load i32, ptr %ret, align 4
  store i32 %18, ptr %retval, align 4
  br label %return

if.end13:                                         ; preds = %if.end10
  %19 = load ptr, ptr %key.addr, align 8
  %k = getelementptr inbounds %struct.ecc_key, ptr %19, i32 0, i32 7
  %arraydecay = getelementptr inbounds [1 x %struct.sp_int], ptr %k, i64 0, i64 0
  %20 = load ptr, ptr %priv.addr, align 8
  %21 = load i32, ptr %privSz.addr, align 4
  %call14 = call i32 @sp_read_unsigned_bin(ptr noundef %arraydecay, ptr noundef %20, i32 noundef %21)
  store i32 %call14, ptr %ret, align 4
  %22 = load i32, ptr %ret, align 4
  store i32 %22, ptr %retval, align 4
  br label %return

return:                                           ; preds = %if.end13, %if.then12, %if.then
  %23 = load i32, ptr %retval, align 4
  ret i32 %23
}