; Function Attrs: nounwind uwtable
define i32 @wc_ecc_import_private_key_ex(ptr noundef %priv, i32 noundef %privSz, ptr noundef %pub, i32 noundef %pubSz, ptr noundef %key, i32 noundef %curve_id) local_unnamed_addr #2 {
entry:
  %idx = alloca i32, align 4
  %cmp = icmp eq ptr %key, null
  %cmp1 = icmp eq ptr %priv, null
  %or.cond = or i1 %cmp1, %cmp
  br i1 %or.cond, label %return, label %if.end

if.end:                                           ; preds = %entry
  %cmp2.not = icmp eq ptr %pub, null
  br i1 %cmp2.not, label %lor.lhs.false.i, label %if.then3

if.then3:                                         ; preds = %if.end
  store i32 0, ptr %idx, align 4
  %call = tail call i32 @wc_ecc_import_x963_ex(ptr noundef nonnull %pub, i32 noundef %pubSz, ptr noundef nonnull %key, i32 noundef %curve_id)
  %cmp4 = icmp slt i32 %call, 0
  br i1 %cmp4, label %if.then5, label %if.end10

if.then5:                                         ; preds = %if.then3
  %call6 = call i32 @wc_EccPublicKeyDecode(ptr noundef nonnull %pub, ptr noundef nonnull %idx, ptr noundef nonnull %key, i32 noundef %pubSz) #19
  br label %if.end10

lor.lhs.false.i:                                  ; preds = %if.end
  %state.i = getelementptr inbounds nuw i8, ptr %key, i64 8
  store i32 0, ptr %state.i, align 8
  %cmp1.i = icmp slt i32 %privSz, 1
  %cmp2.i = icmp slt i32 %curve_id, 0
  %or.cond.i = and i1 %cmp1.i, %cmp2.i
  br i1 %or.cond.i, label %if.end10.thread, label %if.end.i

if.end.i:                                         ; preds = %lor.lhs.false.i
  %cmp3.i = icmp sgt i32 %privSz, 66
  br i1 %cmp3.i, label %if.end10.thread, label %if.end5.i

if.end5.i:                                        ; preds = %if.end.i
  %idx.i = getelementptr inbounds nuw i8, ptr %key, i64 4
  %0 = load i32, ptr %idx.i, align 4
  %cmp6.not.i = icmp eq i32 %0, -1
  br i1 %cmp6.not.i, label %if.end10.thread21, label %if.then7.i

if.then7.i:                                       ; preds = %if.end5.i
  store i32 0, ptr %idx.i, align 4
  %dp.i = getelementptr inbounds nuw i8, ptr %key, i64 16
  store ptr null, ptr %dp.i, align 8
  %cmp10.i = icmp sgt i32 %curve_id, 0
  br i1 %cmp10.i, label %for.body.us.i, label %if.then7.split.i

for.body.us.i:                                    ; preds = %if.then7.i, %for.inc.us.i
  %indvars.iv33.i = phi i64 [ %indvars.iv.next34.i, %for.inc.us.i ], [ 0, %if.then7.i ]
  %arrayidx19.us.i = phi ptr [ %arrayidx.us.i, %for.inc.us.i ], [ @ecc_sets, %if.then7.i ]
  %id.us.i = getelementptr inbounds nuw i8, ptr %arrayidx19.us.i, i64 4
  %1 = load i32, ptr %id.us.i, align 4
  %cmp14.us.i = icmp eq i32 %curve_id, %1
  br i1 %cmp14.us.i, label %if.end29.loopexit.i, label %for.inc.us.i

for.inc.us.i:                                     ; preds = %for.body.us.i
  %indvars.iv.next34.i = add nuw nsw i64 %indvars.iv33.i, 1
  %arrayidx.us.i = getelementptr inbounds nuw [6 x %struct.ecc_set_type], ptr @ecc_sets, i64 0, i64 %indvars.iv.next34.i
  %exitcond36.i = icmp eq i64 %indvars.iv.next34.i, 5
  br i1 %exitcond36.i, label %if.end10.thread, label %for.body.us.i, !llvm.loop !6

if.then7.split.i:                                 ; preds = %if.then7.i
  %cmp20.not23.i = icmp sgt i32 %privSz, 28
  br i1 %cmp20.not23.i, label %for.inc.i, label %if.end29.i

for.body.i:                                       ; preds = %for.inc.i
  %indvars.iv.next.i = add nuw nsw i64 %indvars.iv.i, 1
  %arrayidx.i = getelementptr inbounds nuw [6 x %struct.ecc_set_type], ptr @ecc_sets, i64 0, i64 %indvars.iv.next.i
  %2 = load i32, ptr %arrayidx.i, align 8
  %cmp20.not.i = icmp sgt i32 %privSz, %2
  br i1 %cmp20.not.i, label %for.inc.i, label %if.end29.loopexit27.i, !llvm.loop !6

for.inc.i:                                        ; preds = %if.then7.split.i, %for.body.i
  %indvars.iv.i = phi i64 [ %indvars.iv.next.i, %for.body.i ], [ 0, %if.then7.split.i ]
  %exitcond.i = icmp eq i64 %indvars.iv.i, 4
  br i1 %exitcond.i, label %if.end10.thread, label %for.body.i, !llvm.loop !6

if.end29.loopexit.i:                              ; preds = %for.body.us.i
  %3 = trunc nuw nsw i64 %indvars.iv33.i to i32
  br label %if.end29.i

if.end29.loopexit27.i:                            ; preds = %for.body.i
  %4 = trunc nuw nsw i64 %indvars.iv.next.i to i32
  br label %if.end29.i

if.end29.i:                                       ; preds = %if.end29.loopexit27.i, %if.end29.loopexit.i, %if.then7.split.i
  %.us-phi.i = phi i32 [ 0, %if.then7.split.i ], [ %3, %if.end29.loopexit.i ], [ %4, %if.end29.loopexit27.i ]
  %.us-phi20.i = phi ptr [ @ecc_sets, %if.then7.split.i ], [ %arrayidx19.us.i, %if.end29.loopexit.i ], [ %arrayidx.i, %if.end29.loopexit27.i ]
  store i32 %.us-phi.i, ptr %idx.i, align 4
  store ptr %.us-phi20.i, ptr %dp.i, align 8
  br label %if.end10.thread21

if.end10.thread:                                  ; preds = %for.inc.i, %for.inc.us.i, %lor.lhs.false.i, %if.end.i
  %ret.1.ph = phi i32 [ -170, %if.end.i ], [ -173, %lor.lhs.false.i ], [ -172, %for.inc.us.i ], [ -172, %for.inc.i ]
  store i32 3, ptr %key, align 8
  br label %return

if.end10.thread21:                                ; preds = %if.end29.i, %if.end5.i
  store i32 3, ptr %key, align 8
  br label %if.end13

if.end10:                                         ; preds = %if.then3, %if.then5
  %ret.1 = phi i32 [ %call6, %if.then5 ], [ %call, %if.then3 ]
  store i32 2, ptr %key, align 8
  %cmp11.not = icmp eq i32 %ret.1, 0
  br i1 %cmp11.not, label %if.end13, label %return

if.end13:                                         ; preds = %if.end10.thread21, %if.end10
  %k = getelementptr inbounds nuw i8, ptr %key, i64 3152
  %call14 = call i32 @sp_read_unsigned_bin(ptr noundef nonnull %k, ptr noundef %priv, i32 noundef %privSz) #19
  br label %return

return:                                           ; preds = %if.end10.thread, %if.end10, %entry, %if.end13
  %retval.0 = phi i32 [ %call14, %if.end13 ], [ -173, %entry ], [ %ret.1, %if.end10 ], [ %ret.1.ph, %if.end10.thread ]
  ret i32 %retval.0
}